target datalayout = "e-m:e-p270:32:32-p271:32:32-p272:64:64-i64:64-i128:128-f80:128-n8:16:32:64-S128"
target triple = "x86_64-pc-linux-gnu"

%struct.engineInfo = type { ptr, ptr, ptr }
%struct.engine = type { ptr, ptr, ptr, ptr, ptr, ptr, ptr, ptr }
%struct.functionInfo = type { ptr, ptr, ptr, ptr, i64 }
%struct.functionLibInfo = type { ptr, ptr, ptr, ptr }
%struct.functionsLibCtx = type { ptr, ptr, i64, ptr }
%struct.functionsLibEngineStats = type { i64, i64 }
%struct.dict = type { ptr, [2 x ptr], [2 x i64], i64, i16, [2 x i8], i16, [0 x ptr] }

@.str.3 = private unnamed_addr constant [12 x i8] c"functions.c\00", align 1
@.str.85 = private unnamed_addr constant [6 x i8] c"stats\00", align 1

; Function Attrs: nounwind uwtable
define internal i64 @libraryMallocSize(ptr noundef %0) #1 {
  %2 = alloca ptr, align 8
  store ptr %0, ptr %2, align 8, !tbaa !58
  %3 = load ptr, ptr %2, align 8, !tbaa !58
  %4 = call i64 @je_malloc_usable_size(ptr noundef %3) #11
  %5 = load ptr, ptr %2, align 8, !tbaa !58
  %6 = getelementptr inbounds nuw %struct.functionLibInfo, ptr %5, i32 0, i32 0
  %7 = load ptr, ptr %6, align 8, !tbaa !116
  %8 = call i64 @sdsZmallocSize(ptr noundef %7)
  %9 = add i64 %4, %8
  %10 = load ptr, ptr %2, align 8, !tbaa !58
  %11 = getelementptr inbounds nuw %struct.functionLibInfo, ptr %10, i32 0, i32 3
  %12 = load ptr, ptr %11, align 8, !tbaa !119
  %13 = call i64 @sdsZmallocSize(ptr noundef %12)
  %14 = add i64 %9, %13
  ret i64 %14
}

; Function Attrs: nounwind uwtable
define internal i64 @functionMallocSize(ptr noundef %0) #1 {
  %2 = alloca ptr, align 8
  store ptr %0, ptr %2, align 8, !tbaa !25
  %3 = load ptr, ptr %2, align 8, !tbaa !25
  %4 = call i64 @je_malloc_usable_size(ptr noundef %3) #11
  %5 = load ptr, ptr %2, align 8, !tbaa !25
  %6 = getelementptr inbounds nuw %struct.functionInfo, ptr %5, i32 0, i32 0
  %7 = load ptr, ptr %6, align 8, !tbaa !27
  %8 = call i64 @sdsZmallocSize(ptr noundef %7)
  %9 = add i64 %4, %8
  %10 = load ptr, ptr %2, align 8, !tbaa !25
  %11 = getelementptr inbounds nuw %struct.functionInfo, ptr %10, i32 0, i32 3
  %12 = load ptr, ptr %11, align 8, !tbaa !31
  %13 = icmp ne ptr %12, null
  br i1 %13, label %14, label %19

14:                                               ; preds = %1
  %15 = load ptr, ptr %2, align 8, !tbaa !25
  %16 = getelementptr inbounds nuw %struct.functionInfo, ptr %15, i32 0, i32 3
  %17 = load ptr, ptr %16, align 8, !tbaa !31
  %18 = call i64 @sdsZmallocSize(ptr noundef %17)
  br label %20

19:                                               ; preds = %1
  br label %20

20:                                               ; preds = %19, %14
  %21 = phi i64 [ %18, %14 ], [ 0, %19 ]
  %22 = add i64 %9, %21
  %23 = load ptr, ptr %2, align 8, !tbaa !25
  %24 = getelementptr inbounds nuw %struct.functionInfo, ptr %23, i32 0, i32 2
  %25 = load ptr, ptr %24, align 8, !tbaa !32
  %26 = getelementptr inbounds nuw %struct.functionLibInfo, ptr %25, i32 0, i32 2
  %27 = load ptr, ptr %26, align 8, !tbaa !33
  %28 = getelementptr inbounds nuw %struct.engineInfo, ptr %27, i32 0, i32 1
  %29 = load ptr, ptr %28, align 8, !tbaa !19
  %30 = getelementptr inbounds nuw %struct.engine, ptr %29, i32 0, i32 4
  %31 = load ptr, ptr %30, align 8, !tbaa !164
  %32 = load ptr, ptr %2, align 8, !tbaa !25
  %33 = getelementptr inbounds nuw %struct.functionInfo, ptr %32, i32 0, i32 1
  %34 = load ptr, ptr %33, align 8, !tbaa !37
  %35 = call i64 %31(ptr noundef %34)
  %36 = add i64 %22, %35
  ret i64 %36
}

; Function Attrs: nounwind uwtable
define internal void @libraryLink(ptr noundef %0, ptr noundef %1) #1 {
  %3 = alloca ptr, align 8
  %4 = alloca ptr, align 8
  %5 = alloca ptr, align 8
  %6 = alloca ptr, align 8
  %7 = alloca ptr, align 8
  %8 = alloca ptr, align 8
  store ptr %0, ptr %3, align 8, !tbaa !38
  store ptr %1, ptr %4, align 8, !tbaa !58
  call void @llvm.lifetime.start.p0(i64 8, ptr %5) #11
  %9 = load ptr, ptr %4, align 8, !tbaa !58
  %10 = getelementptr inbounds nuw %struct.functionLibInfo, ptr %9, i32 0, i32 1
  %11 = load ptr, ptr %10, align 8, !tbaa !62
  %12 = call ptr @dictGetIterator(ptr noundef %11)
  store ptr %12, ptr %5, align 8, !tbaa !44
  call void @llvm.lifetime.start.p0(i64 8, ptr %6) #11
  store ptr null, ptr %6, align 8, !tbaa !46
  br label %13

13:                                               ; preds = %17, %2
  %14 = load ptr, ptr %5, align 8, !tbaa !44
  %15 = call ptr @dictNext(ptr noundef %14)
  store ptr %15, ptr %6, align 8, !tbaa !46
  %16 = icmp ne ptr %15, null
  br i1 %16, label %17, label %34

17:                                               ; preds = %13
  call void @llvm.lifetime.start.p0(i64 8, ptr %7) #11
  %18 = load ptr, ptr %6, align 8, !tbaa !46
  %19 = call ptr @dictGetVal(ptr noundef %18)
  store ptr %19, ptr %7, align 8, !tbaa !25
  %20 = load ptr, ptr %3, align 8, !tbaa !38
  %21 = getelementptr inbounds nuw %struct.functionsLibCtx, ptr %20, i32 0, i32 1
  %22 = load ptr, ptr %21, align 8, !tbaa !40
  %23 = load ptr, ptr %7, align 8, !tbaa !25
  %24 = getelementptr inbounds nuw %struct.functionInfo, ptr %23, i32 0, i32 0
  %25 = load ptr, ptr %24, align 8, !tbaa !27
  %26 = load ptr, ptr %7, align 8, !tbaa !25
  %27 = call i32 @dictAdd(ptr noundef %22, ptr noundef %25, ptr noundef %26)
  %28 = load ptr, ptr %7, align 8, !tbaa !25
  %29 = call i64 @functionMallocSize(ptr noundef %28)
  %30 = load ptr, ptr %3, align 8, !tbaa !38
  %31 = getelementptr inbounds nuw %struct.functionsLibCtx, ptr %30, i32 0, i32 2
  %32 = load i64, ptr %31, align 8, !tbaa !53
  %33 = add i64 %32, %29
  store i64 %33, ptr %31, align 8, !tbaa !53
  call void @llvm.lifetime.end.p0(i64 8, ptr %7) #11
  br label %13, !llvm.loop !160

34:                                               ; preds = %13
  %35 = load ptr, ptr %5, align 8, !tbaa !44
  call void @dictReleaseIterator(ptr noundef %35)
  %36 = load ptr, ptr %3, align 8, !tbaa !38
  %37 = getelementptr inbounds nuw %struct.functionsLibCtx, ptr %36, i32 0, i32 0
  %38 = load ptr, ptr %37, align 8, !tbaa !42
  %39 = load ptr, ptr %4, align 8, !tbaa !58
  %40 = getelementptr inbounds nuw %struct.functionLibInfo, ptr %39, i32 0, i32 0
  %41 = load ptr, ptr %40, align 8, !tbaa !116
  %42 = load ptr, ptr %4, align 8, !tbaa !58
  %43 = call i32 @dictAdd(ptr noundef %38, ptr noundef %41, ptr noundef %42)
  %44 = load ptr, ptr %4, align 8, !tbaa !58
  %45 = call i64 @libraryMallocSize(ptr noundef %44)
  %46 = load ptr, ptr %3, align 8, !tbaa !38
  %47 = getelementptr inbounds nuw %struct.functionsLibCtx, ptr %46, i32 0, i32 2
  %48 = load i64, ptr %47, align 8, !tbaa !53
  %49 = add i64 %48, %45
  store i64 %49, ptr %47, align 8, !tbaa !53
  call void @llvm.lifetime.start.p0(i64 8, ptr %8) #11
  %50 = load ptr, ptr %3, align 8, !tbaa !38
  %51 = getelementptr inbounds nuw %struct.functionsLibCtx, ptr %50, i32 0, i32 3
  %52 = load ptr, ptr %51, align 8, !tbaa !43
  %53 = load ptr, ptr %4, align 8, !tbaa !58
  %54 = getelementptr inbounds nuw %struct.functionLibInfo, ptr %53, i32 0, i32 2
  %55 = load ptr, ptr %54, align 8, !tbaa !33
  %56 = getelementptr inbounds nuw %struct.engineInfo, ptr %55, i32 0, i32 0
  %57 = load ptr, ptr %56, align 8, !tbaa !18
  %58 = call ptr @dictFetchValue(ptr noundef %52, ptr noundef %57)
  store ptr %58, ptr %8, align 8, !tbaa !23
  %59 = load ptr, ptr %8, align 8, !tbaa !23
  %60 = icmp ne ptr %59, null
  %61 = xor i1 %60, true
  %62 = xor i1 %61, true
  %63 = zext i1 %62 to i32
  %64 = sext i32 %63 to i64
  %65 = call i64 @llvm.expect.i64(i64 %64, i64 1)
  %66 = icmp ne i64 %65, 0
  br i1 %66, label %67, label %68

67:                                               ; preds = %34
  br label %70

68:                                               ; preds = %34
  call void @_serverAssert(ptr noundef @.str.85, ptr noundef @.str.3, i32 noundef 315)
  call void @abort() #13
  unreachable

69:                                               ; No predecessors!
  br label %70

70:                                               ; preds = %69, %67
  %71 = load ptr, ptr %8, align 8, !tbaa !23
  %72 = getelementptr inbounds nuw %struct.functionsLibEngineStats, ptr %71, i32 0, i32 0
  %73 = load i64, ptr %72, align 8, !tbaa !50
  %74 = add i64 %73, 1
  store i64 %74, ptr %72, align 8, !tbaa !50
  %75 = load ptr, ptr %4, align 8, !tbaa !58
  %76 = getelementptr inbounds nuw %struct.functionLibInfo, ptr %75, i32 0, i32 1
  %77 = load ptr, ptr %76, align 8, !tbaa !62
  %78 = getelementptr inbounds nuw %struct.dict, ptr %77, i32 0, i32 2
  %79 = getelementptr inbounds [2 x i64], ptr %78, i64 0, i64 0
  %80 = load i64, ptr %79, align 8, !tbaa !59
  %81 = load ptr, ptr %4, align 8, !tbaa !58
  %82 = getelementptr inbounds nuw %struct.functionLibInfo, ptr %81, i32 0, i32 1
  %83 = load ptr, ptr %82, align 8, !tbaa !62
  %84 = getelementptr inbounds nuw %struct.dict, ptr %83, i32 0, i32 2
  %85 = getelementptr inbounds [2 x i64], ptr %84, i64 0, i64 1
  %86 = load i64, ptr %85, align 8, !tbaa !59
  %87 = add i64 %80, %86
  %88 = load ptr, ptr %8, align 8, !tbaa !23
  %89 = getelementptr inbounds nuw %struct.functionsLibEngineStats, ptr %88, i32 0, i32 1
  %90 = load i64, ptr %89, align 8, !tbaa !48
  %91 = add i64 %90, %87
  store i64 %91, ptr %89, align 8, !tbaa !48
  call void @llvm.lifetime.end.p0(i64 8, ptr %8) #11
  call void @llvm.lifetime.end.p0(i64 8, ptr %6) #11
  call void @llvm.lifetime.end.p0(i64 8, ptr %5) #11
  ret void
}