; Function Attrs: nounwind uwtable
define internal fastcc void @libraryLink(ptr noundef captures(none) %0, ptr noundef %1) unnamed_addr #1 {
  %3 = getelementptr inbounds nuw i8, ptr %1, i64 8
  %4 = load ptr, ptr %3, align 8, !tbaa !30
  %5 = tail call ptr @dictGetIterator(ptr noundef %4) #12
  %6 = tail call ptr @dictNext(ptr noundef %5) #12
  %.not23 = icmp eq ptr %6, null
  br i1 %.not23, label %._crit_edge, label %.lr.ph

.lr.ph:                                           ; preds = %2
  %7 = getelementptr inbounds nuw i8, ptr %0, i64 8
  %8 = getelementptr inbounds nuw i8, ptr %0, i64 16
  br label %9

9:                                                ; preds = %.lr.ph, %functionMallocSize.exit
  %10 = phi ptr [ %6, %.lr.ph ], [ %39, %functionMallocSize.exit ]
  %11 = tail call ptr @dictGetVal(ptr noundef nonnull %10) #12
  %12 = load ptr, ptr %7, align 8, !tbaa !33
  %13 = load ptr, ptr %11, align 8, !tbaa !18
  %14 = tail call i32 @dictAdd(ptr noundef %12, ptr noundef %13, ptr noundef nonnull %11) #12
  %15 = tail call i64 @je_malloc_usable_size(ptr noundef nonnull %11) #12
  %16 = load ptr, ptr %11, align 8, !tbaa !18
  %17 = tail call i64 @sdsZmallocSize(ptr noundef %16) #12
  %18 = getelementptr inbounds nuw i8, ptr %11, i64 24
  %19 = load ptr, ptr %18, align 8, !tbaa !22
  %.not.i = icmp eq ptr %19, null
  br i1 %.not.i, label %functionMallocSize.exit, label %20

20:                                               ; preds = %9
  %21 = tail call i64 @sdsZmallocSize(ptr noundef nonnull %19) #12
  br label %functionMallocSize.exit

functionMallocSize.exit:                          ; preds = %9, %20
  %22 = phi i64 [ %21, %20 ], [ 0, %9 ]
  %23 = add i64 %17, %15
  %24 = add i64 %23, %22
  %25 = getelementptr inbounds nuw i8, ptr %11, i64 16
  %26 = load ptr, ptr %25, align 8, !tbaa !23
  %27 = getelementptr inbounds nuw i8, ptr %26, i64 16
  %28 = load ptr, ptr %27, align 8, !tbaa !24
  %29 = getelementptr inbounds nuw i8, ptr %28, i64 8
  %30 = load ptr, ptr %29, align 8, !tbaa !14
  %31 = getelementptr inbounds nuw i8, ptr %30, i64 32
  %32 = load ptr, ptr %31, align 8, !tbaa !117
  %33 = getelementptr inbounds nuw i8, ptr %11, i64 8
  %34 = load ptr, ptr %33, align 8, !tbaa !29
  %35 = tail call i64 %32(ptr noundef %34) #12
  %36 = add i64 %24, %35
  %37 = load i64, ptr %8, align 8, !tbaa !39
  %38 = add i64 %36, %37
  store i64 %38, ptr %8, align 8, !tbaa !39
  %39 = tail call ptr @dictNext(ptr noundef %5) #12
  %.not = icmp eq ptr %39, null
  br i1 %.not, label %._crit_edge, label %9, !llvm.loop !142

._crit_edge:                                      ; preds = %functionMallocSize.exit, %2
  tail call void @dictReleaseIterator(ptr noundef %5) #12
  %40 = load ptr, ptr %0, align 8, !tbaa !35
  %41 = load ptr, ptr %1, align 8, !tbaa !31
  %42 = tail call i32 @dictAdd(ptr noundef %40, ptr noundef %41, ptr noundef nonnull %1) #12
  %43 = tail call i64 @je_malloc_usable_size(ptr noundef nonnull %1) #12
  %44 = load ptr, ptr %1, align 8, !tbaa !31
  %45 = tail call i64 @sdsZmallocSize(ptr noundef %44) #12
  %46 = add i64 %45, %43
  %47 = getelementptr inbounds nuw i8, ptr %1, i64 24
  %48 = load ptr, ptr %47, align 8, !tbaa !32
  %49 = tail call i64 @sdsZmallocSize(ptr noundef %48) #12
  %50 = add i64 %46, %49
  %51 = getelementptr inbounds nuw i8, ptr %0, i64 16
  %52 = load i64, ptr %51, align 8, !tbaa !39
  %53 = add i64 %50, %52
  store i64 %53, ptr %51, align 8, !tbaa !39
  %54 = getelementptr inbounds nuw i8, ptr %0, i64 24
  %55 = load ptr, ptr %54, align 8, !tbaa !36
  %56 = getelementptr inbounds nuw i8, ptr %1, i64 16
  %57 = load ptr, ptr %56, align 8, !tbaa !24
  %58 = load ptr, ptr %57, align 8, !tbaa !13
  %59 = tail call ptr @dictFetchValue(ptr noundef %55, ptr noundef %58) #12
  %.not22 = icmp eq ptr %59, null
  br i1 %.not22, label %60, label %61, !prof !119

60:                                               ; preds = %._crit_edge
  tail call void @_serverAssert(ptr noundef nonnull @.str.85, ptr noundef nonnull @.str.3, i32 noundef 315) #12
  tail call void @abort() #14
  unreachable

61:                                               ; preds = %._crit_edge
  %62 = load i64, ptr %59, align 8, !tbaa !102
  %63 = add i64 %62, 1
  store i64 %63, ptr %59, align 8, !tbaa !102
  %64 = load ptr, ptr %3, align 8, !tbaa !30
  %65 = getelementptr inbounds nuw i8, ptr %64, i64 24
  %66 = load i64, ptr %65, align 8, !tbaa !49
  %67 = getelementptr inbounds nuw i8, ptr %64, i64 32
  %68 = load i64, ptr %67, align 8, !tbaa !49
  %69 = add i64 %68, %66
  %70 = getelementptr inbounds nuw i8, ptr %59, i64 8
  %71 = load i64, ptr %70, align 8, !tbaa !104
  %72 = add i64 %69, %71
  store i64 %72, ptr %70, align 8, !tbaa !104
  ret void
}